; Function Attrs: mustprogress nounwind uwtable
define dso_local noundef nonnull align 8 dereferenceable(120) ptr @_ZN5clang6driver15MultilibBuilder8osSuffixEN4llvm9StringRefE(ptr noundef nonnull returned align 8 dereferenceable(120) %0, ptr %1, i64 %2) local_unnamed_addr #0 align 2 {
  %4 = alloca %"struct.std::__cxx11::basic_string<char>::__sv_wrapper", align 8
  %5 = alloca %"class.std::__cxx11::basic_string", align 8
  %6 = alloca %"class.std::allocator", align 1
  call void @_ZNSaIcEC1Ev(ptr noundef nonnull align 1 dereferenceable(1) %6) #14
  call void @llvm.lifetime.start.p0(i64 16, ptr nonnull %4)
  %7 = call { i64, ptr } @_ZNSt7__cxx1112basic_stringIcSt11char_traitsIcESaIcEE17_S_to_string_viewESt17basic_string_viewIcS2_E(i64 %2, ptr %1) #14
  %8 = extractvalue { i64, ptr } %7, 0
  %9 = extractvalue { i64, ptr } %7, 1
  call void @_ZNSt7__cxx1112basic_stringIcSt11char_traitsIcESaIcEE12__sv_wrapperC1ESt17basic_string_viewIcS2_E(ptr noundef nonnull align 8 dereferenceable(16) %4, i64 %8, ptr %9) #14
  %10 = load i64, ptr %4, align 8
  %11 = getelementptr inbounds nuw i8, ptr %4, i64 8
  %12 = load ptr, ptr %11, align 8
  call void @_ZNSt7__cxx1112basic_stringIcSt11char_traitsIcESaIcEEC2ENS4_12__sv_wrapperERKS3_(ptr noundef nonnull align 8 dereferenceable(32) %5, i64 %10, ptr %12, ptr noundef nonnull align 1 dereferenceable(1) %6) #14
  call void @llvm.lifetime.end.p0(i64 16, ptr nonnull %4)
  %13 = getelementptr inbounds nuw i8, ptr %0, i64 32
  %14 = call noundef nonnull align 8 dereferenceable(32) ptr @_ZNSt7__cxx1112basic_stringIcSt11char_traitsIcESaIcEEaSEOS4_(ptr noundef nonnull align 8 dereferenceable(32) %13, ptr noundef nonnull align 8 dereferenceable(32) %5) #14
  call void @_ZNSt7__cxx1112basic_stringIcSt11char_traitsIcESaIcEED1Ev(ptr noundef nonnull align 8 dereferenceable(32) %5) #14
  call void @_ZNSaIcED1Ev(ptr noundef nonnull align 1 dereferenceable(1) %6) #14
  call fastcc void @_ZL20normalizePathSegmentRNSt7__cxx1112basic_stringIcSt11char_traitsIcESaIcEEE(ptr noundef nonnull align 8 dereferenceable(32) %13)
  ret ptr %0
}